 ProjektKnjiznica

 Timestamp is 6a37b6b7 (Sun Jun 21 12:02:31 2026)

 Preferred load address is 0000000180000000

 Start         Length     Name                   Class
 0001:00000000 00000583H .text                   CODE
 0001:00000590 00000020H .text$_ZN17TStatistikaSalona15IzracunajPoreziEd CODE
 0001:000005b0 00000030H .text$_ZN17TStatistikaSalona20IzracunajTrosakUvozaEd CODE
 0001:000005e0 000015acH .text                   CODE
 0002:00000000 00000008H .rdata$__mingw_fe_dfl_env DATA
 0002:00000008 00000008H .rdata$__mingw_fe_pc64_env DATA
 0002:00000010 00000008H .rdata$__mingw_fe_pc53_env DATA
 0002:00000018 00000008H .rdata$.refptr.__dyn_tls_init_callback DATA
 0002:00000020 00000008H .rdata$.refptr.__mingw_app_type DATA
 0002:00000028 00000008H .rdata$.refptr.__native_dllmain_reason DATA
 0002:00000030 00000008H .rdata$.refptr.__native_startup_lock DATA
 0002:00000038 00000008H .rdata$.refptr.__native_startup_state DATA
 0002:00000040 00000008H .rdata$.refptr.__xc_a   DATA
 0002:00000048 00000008H .rdata$.refptr.__xc_z   DATA
 0002:00000050 00000008H .rdata$.refptr.__xi_a   DATA
 0002:00000058 00000008H .rdata$.refptr.__xi_z   DATA
 0002:00000060 00000008H .rdata$.refptr._hInstance DATA
 0002:00000068 000003f0H .rdata                  DATA
 0002:00000458 00000008H .rdata$.refptr._CRT_MT  DATA
 0002:00000460 00000008H .rdata$.refptr.__CTOR_LIST__ DATA
 0002:00000468 00000143H .rdata                  DATA
 0002:000005b0 00000008H .rdata$.refptr.__ImageBase DATA
 0002:000005b8 00000008H .rdata$.refptr.__RUNTIME_PSEUDO_RELOC_LIST_END__ DATA
 0002:000005c0 00000008H .rdata$.refptr.__RUNTIME_PSEUDO_RELOC_LIST__ DATA
 0002:000005c8 00000010H .rdata                  DATA
 0002:000005d8 00000008H .rdata$.refptr._mngr    DATA
 0002:000005e0 00000008H .rdata$.refptr._mngr_set DATA
 0002:000005e8 00000138H .rdata                  DATA
 0002:00000720 00000010H .00cfg                  DATA
 0002:00000730 00000008H .CRT$XCA                DATA
 0002:00000738 00000008H .CRT$XCZ                DATA
 0002:00000740 00000008H .CRT$XDA                DATA
 0002:00000748 00000008H .CRT$XDZ                DATA
 0002:00000750 00000008H .CRT$XIA                DATA
 0002:00000758 00000008H .CRT$XIZ                DATA
 0002:00000760 00000008H .CRT$XLA                DATA
 0002:00000768 00000008H .CRT$XLC                DATA
 0002:00000770 00000008H .CRT$XLD                DATA
 0002:00000778 00000008H .CRT$XLZ                DATA
 0002:00000d50 00000040H .xdata                  DATA
 0002:00000d90 00000008H .xdata$_ZN17TStatistikaSalona15IzracunajPoreziEd DATA
 0002:00000d98 00000008H .xdata$_ZN17TStatistikaSalona20IzracunajTrosakUvozaEd DATA
 0002:00000da0 0000010cH .xdata                  DATA
 0004:00000000 00000040H .data                   DATA
 0004:00000040 000000d8H .bss                    DATA
 0005:00000000 00000060H .pdata                  DATA
 0005:00000060 0000000cH .pdata$_ZN17TStatistikaSalona15IzracunajPoreziEd DATA
 0005:0000006c 0000000cH .pdata$_ZN17TStatistikaSalona20IzracunajTrosakUvozaEd DATA
 0005:00000078 0000018cH .pdata                  DATA
 0006:00000000 00000008H .tls                    DATA
 0006:00000008 00000008H .tls$ZZZ                DATA
 0007:00000000 000000c0H .rsrc$01                DATA
 0007:000000c0 00000238H .rsrc$02                DATA

  Address         Publics by Value              Rva+Base               Lib:Object

 0000:00000000       __guard_fids_table         0000000000000000     <absolute>
 0000:00000000       __guard_fids_count         0000000000000000     <absolute>
 0000:00000000       __guard_iat_table          0000000000000000     <absolute>
 0000:00000000       __guard_iat_count          0000000000000000     <absolute>
 0000:00000000       __guard_longjmp_table      0000000000000000     <absolute>
 0000:00000000       __guard_longjmp_count      0000000000000000     <absolute>
 0000:00000000       __guard_eh_cont_table      0000000000000000     <absolute>
 0000:00000000       __guard_eh_cont_count      0000000000000000     <absolute>
 0000:00000100       __guard_flags              0000000000000100     <absolute>
 0000:00000000       __ImageBase                0000000180000000     <linker-defined>
 0001:00000000       _CRT_INIT                  0000000180001000     dllcrt2.o
 0001:00000280       DllMainCRTStartup          0000000180001280     dllcrt2.o
 0001:00000450       atexit                     0000000180001450     dllcrt2.o
 0001:00000470       __System__GetTls           0000000180001470     crtbegin.o
 0001:00000470       _ZN7Sysinit7_GetTlsEv      0000000180001470     crtbegin.o
 0001:00000490       DllIzracunajPorez          0000000180001490     MojaKnjiznica.o
 0001:000004b0       DllIzracunajUvoz           00000001800014b0     MojaKnjiznica.o
 0001:000004d0       DllPrikaziProzorOAutoru    00000001800014d0     MojaKnjiznica.o
 0001:00000500       DllPrikaziProzorLicence    0000000180001500     MojaKnjiznica.o
 0001:00000560       DllEntryPoint              0000000180001560     MojaKnjiznica.o
 0001:00000590       _ZN17TStatistikaSalona15IzracunajPoreziEd 0000000180001590     MojaKnjiznica.o
 0001:000005b0       _ZN17TStatistikaSalona20IzracunajTrosakUvozaEd 00000001800015b0     MojaKnjiznica.o
 0001:000005e0       _amsg_exit                 00000001800015e0     libucrt:lib64_libucrt_extra_a-ucrt_amsg_exit.o
 0001:00000620       __dyn_tls_init             0000000180001620     libmingw32:lib64_libmingw32_a-tlssup.o
 0001:000006e0       __tlregdtor                00000001800016e0     libmingw32:lib64_libmingw32_a-tlssup.o
 0001:00000710       __dyn_tls_dtor             0000000180001710     libmingw32:lib64_libmingw32_a-tlssup.o
 0001:00000750       __do_global_dtors          0000000180001750     libmingw32:lib64_libmingw32_a-gccmain.o
 0001:00000790       __do_global_ctors          0000000180001790     libmingw32:lib64_libmingw32_a-gccmain.o
 0001:00000830       __main                     0000000180001830     libmingw32:lib64_libmingw32_a-gccmain.o
 0001:00000860       _libmain                   0000000180001860     libmingw32:lib64_libmingw32_a-_libmain.o
 0001:00000870       _pei386_runtime_relocator  0000000180001870     libmingw32:lib64_libmingw32_a-pseudo-reloc.o
 0001:000010a0       DllMain                    00000001800020a0     libmingwex:lib64_libmingwex_a-dllmain.o
 0001:000010c0       __guard_dispatch_icall_dummy 00000001800020c0     libmingwex:lib64_libmingwex_a-mingw_cfguard_support.o
 0001:000010e0       fprintf                    00000001800020e0     libucrt:lib64_libucrt_extra_a-ucrt_fprintf.o
 0001:00001140       ___w64_mingwthr_add_key_dtor 0000000180002140     libmingw32:lib64_libmingw32_a-tlsthrd.o
 0001:000011f0       ___w64_mingwthr_remove_key_dtor 00000001800021f0     libmingw32:lib64_libmingw32_a-tlsthrd.o
 0001:000012c0       __mingw_TLScallback        00000001800022c0     libmingw32:lib64_libmingw32_a-tlsthrd.o
 0001:00001430       _ValidateImageBase         0000000180002430     libmingw32:lib64_libmingw32_a-pesect.o
 0001:000014c0       _FindPESection             00000001800024c0     libmingw32:lib64_libmingw32_a-pesect.o
 0001:00001590       _FindPESectionByName       0000000180002590     libmingw32:lib64_libmingw32_a-pesect.o
 0001:00001680       __mingw_GetSectionForAddress 0000000180002680     libmingw32:lib64_libmingw32_a-pesect.o
 0001:000016e0       __mingw_GetSectionCount    00000001800026e0     libmingw32:lib64_libmingw32_a-pesect.o
 0001:00001740       _FindPESectionExec         0000000180002740     libmingw32:lib64_libmingw32_a-pesect.o
 0001:00001820       _GetPEImageBase            0000000180002820     libmingw32:lib64_libmingw32_a-pesect.o
 0001:00001860       _IsNonwritableInCurrentImage 0000000180002860     libmingw32:lib64_libmingw32_a-pesect.o
 0001:000018f0       __mingw_enum_import_library_names 00000001800028f0     libmingw32:lib64_libmingw32_a-pesect.o
 0001:00001a10       ___chkstk_ms               0000000180002a10     libclang_rt.builtins-x86_64:chkstk.S.obj
 0001:00001a40       vfprintf                   0000000180002a40     libucrt:lib64_libucrt_extra_a-ucrt_vfprintf.o
 0001:00001a80       __local_stdio_printf_options 0000000180002a80     libucrt:lib64_libucrt_extra_a-ucrt___local_stdio_printf_options.o
 0001:00001a90       calloc                     0000000180002a90     libmingw32:lib64_libmingw32_a-calloc.o
 0001:00001af0       free                       0000000180002af0     libmingw32:lib64_libmingw32_a-free.o
 0001:00001b30       _init_crt_memory_manager   0000000180002b30     libmingw32:lib64_libmingw32_a-crtmm_init.o
 0001:00001b90       _execute_onexit_table      0000000180002b90     libucrt:api-ms-win-crt-runtime-l1-1-0.dll
 0001:00001ba0       _initialize_onexit_table   0000000180002ba0     libucrt:api-ms-win-crt-runtime-l1-1-0.dll
 0001:00001bb0       _initterm                  0000000180002bb0     libucrt:api-ms-win-crt-runtime-l1-1-0.dll
 0001:00001bc0       _initterm_e                0000000180002bc0     libucrt:api-ms-win-crt-runtime-l1-1-0.dll
 0001:00001bd0       _register_onexit_function  0000000180002bd0     libucrt:api-ms-win-crt-runtime-l1-1-0.dll
 0001:00001be0       MessageBoxW                0000000180002be0     import64:USER32.dll
 0001:00001bf0       Sleep                      0000000180002bf0     import64:KERNEL32.dll
 0001:00001c00       __acrt_iob_func            0000000180002c00     libucrt:api-ms-win-crt-stdio-l1-1-0.dll
 0001:00001c10       _exit                      0000000180002c10     libucrt:api-ms-win-crt-runtime-l1-1-0.dll
 0001:00001c20       VirtualProtect             0000000180002c20     import64:KERNEL32.dll
 0001:00001c30       memcpy                     0000000180002c30     libucrt:api-ms-win-crt-private-l1-1-0.dll
 0001:00001c40       abort                      0000000180002c40     libucrt:api-ms-win-crt-runtime-l1-1-0.dll
 0001:00001c50       VirtualQuery               0000000180002c50     import64:KERNEL32.dll
 0001:00001c60       GetLastError               0000000180002c60     import64:KERNEL32.dll
 0001:00001c70       __stdio_common_vfprintf    0000000180002c70     libucrt:api-ms-win-crt-stdio-l1-1-0.dll
 0001:00001c80       EnterCriticalSection       0000000180002c80     import64:KERNEL32.dll
 0001:00001c90       LeaveCriticalSection       0000000180002c90     import64:KERNEL32.dll
 0001:00001ca0       InitializeCriticalSection  0000000180002ca0     import64:KERNEL32.dll
 0001:00001cb0       DeleteCriticalSection      0000000180002cb0     import64:KERNEL32.dll
 0001:00001cc0       _fpreset                   0000000180002cc0     libucrt:api-ms-win-crt-runtime-l1-1-0.dll
 0001:00001cd0       TlsGetValue                0000000180002cd0     import64:KERNEL32.dll
 0001:00001ce0       strlen                     0000000180002ce0     libucrt:api-ms-win-crt-string-l1-1-0.dll
 0001:00001cf0       strncmp                    0000000180002cf0     libucrt:api-ms-win-crt-string-l1-1-0.dll
 0001:00001d00       _calloc                    0000000180002d00     libucrt:api-ms-win-crt-heap-l1-1-0.dll
 0001:00001d10       _free                      0000000180002d10     libucrt:api-ms-win-crt-heap-l1-1-0.dll
 0002:00000000       __mingw_fe_dfl_env         0000000180003000     dllcrt2.o
 0002:00000008       __mingw_fe_pc64_env        0000000180003008     dllcrt2.o
 0002:00000010       __mingw_fe_pc53_env        0000000180003010     dllcrt2.o
 0002:00000018       .refptr.__dyn_tls_init_callback 0000000180003018     dllcrt2.o
 0002:00000020       .refptr.__mingw_app_type   0000000180003020     dllcrt2.o
 0002:00000028       .refptr.__native_dllmain_reason 0000000180003028     dllcrt2.o
 0002:00000030       .refptr.__native_startup_lock 0000000180003030     dllcrt2.o
 0002:00000038       .refptr.__native_startup_state 0000000180003038     dllcrt2.o
 0002:00000040       .refptr.__xc_a             0000000180003040     dllcrt2.o
 0002:00000048       .refptr.__xc_z             0000000180003048     dllcrt2.o
 0002:00000050       .refptr.__xi_a             0000000180003050     dllcrt2.o
 0002:00000058       .refptr.__xi_z             0000000180003058     dllcrt2.o
 0002:00000060       .refptr._hInstance         0000000180003060     dllcrt2.o
 0002:00000428       _tls_used                  0000000180003428     libmingw32:lib64_libmingw32_a-tlssup.o
 0002:00000450       __dyn_tls_init_callback    0000000180003450     libmingw32:lib64_libmingw32_a-tlssup.o
 0002:00000458       .refptr._CRT_MT            0000000180003458     libmingw32:lib64_libmingw32_a-tlssup.o
 0002:00000460       .refptr.__CTOR_LIST__      0000000180003460     libmingw32:lib64_libmingw32_a-gccmain.o
 0002:000005b0       .refptr.__ImageBase        00000001800035b0     libmingw32:lib64_libmingw32_a-pseudo-reloc.o
 0002:000005b8       .refptr.__RUNTIME_PSEUDO_RELOC_LIST_END__ 00000001800035b8     libmingw32:lib64_libmingw32_a-pseudo-reloc.o
 0002:000005c0       .refptr.__RUNTIME_PSEUDO_RELOC_LIST__ 00000001800035c0     libmingw32:lib64_libmingw32_a-pseudo-reloc.o
 0002:000005d8       .refptr._mngr              00000001800035d8     libmingw32:lib64_libmingw32_a-calloc.o
 0002:000005e0       .refptr._mngr_set          00000001800035e0     libmingw32:lib64_libmingw32_a-calloc.o
 0002:000005e8       _load_config_used          00000001800035e8     libmingwex:lib64_libmingwex_a-loadcfg.o
 0000:00000000       __RUNTIME_PSEUDO_RELOC_LIST_END__ 0000000180003720     <linker-defined>
 0000:00000000       __RUNTIME_PSEUDO_RELOC_LIST__ 0000000180003720     <linker-defined>
 0002:00000720       __guard_check_icall_fptr   0000000180003720     libmingwex:lib64_libmingwex_a-mingw_cfguard_support.o
 0002:00000728       __guard_dispatch_icall_fptr 0000000180003728     libmingwex:lib64_libmingwex_a-mingw_cfguard_support.o
 0002:00000730       __xc_a                     0000000180003730     libmingw32:lib64_libmingw32_a-cinitexe.o
 0002:00000738       __xc_z                     0000000180003738     libmingw32:lib64_libmingw32_a-cinitexe.o
 0002:00000750       __xi_a                     0000000180003750     libmingw32:lib64_libmingw32_a-cinitexe.o
 0002:00000758       __xi_z                     0000000180003758     libmingw32:lib64_libmingw32_a-cinitexe.o
 0002:00000760       __xl_a                     0000000180003760     libmingw32:lib64_libmingw32_a-tlssup.o
 0002:00000768       __xl_c                     0000000180003768     libmingw32:lib64_libmingw32_a-tlssup.o
 0002:00000770       __xl_d                     0000000180003770     libmingw32:lib64_libmingw32_a-tlssup.o
 0002:00000778       __xl_z                     0000000180003778     libmingw32:lib64_libmingw32_a-tlssup.o
 0000:00000000       __CTOR_LIST__              0000000180003780     <linker-defined>
 0000:00000000       __DTOR_LIST__              0000000180003790     <linker-defined>
 0002:000009f8       __imp__execute_onexit_table 00000001800039f8     libucrt:api-ms-win-crt-runtime-l1-1-0.dll
 0002:00000a00       __imp__exit                0000000180003a00     libucrt:api-ms-win-crt-runtime-l1-1-0.dll
 0002:00000a08       __imp__fpreset             0000000180003a08     libucrt:api-ms-win-crt-runtime-l1-1-0.dll
 0002:00000a10       __imp__initialize_onexit_table 0000000180003a10     libucrt:api-ms-win-crt-runtime-l1-1-0.dll
 0002:00000a18       __imp__initterm            0000000180003a18     libucrt:api-ms-win-crt-runtime-l1-1-0.dll
 0002:00000a20       __imp__initterm_e          0000000180003a20     libucrt:api-ms-win-crt-runtime-l1-1-0.dll
 0002:00000a28       __imp__register_onexit_function 0000000180003a28     libucrt:api-ms-win-crt-runtime-l1-1-0.dll
 0002:00000a30       __imp_abort                0000000180003a30     libucrt:api-ms-win-crt-runtime-l1-1-0.dll
 0002:00000a40       __imp_MessageBoxW          0000000180003a40     import64:USER32.dll
 0002:00000a50       __imp_DeleteCriticalSection 0000000180003a50     import64:KERNEL32.dll
 0002:00000a58       __imp_EnterCriticalSection 0000000180003a58     import64:KERNEL32.dll
 0002:00000a60       __imp_GetLastError         0000000180003a60     import64:KERNEL32.dll
 0002:00000a68       __imp_InitializeCriticalSection 0000000180003a68     import64:KERNEL32.dll
 0002:00000a70       __imp_LeaveCriticalSection 0000000180003a70     import64:KERNEL32.dll
 0002:00000a78       __imp_Sleep                0000000180003a78     import64:KERNEL32.dll
 0002:00000a80       __imp_TlsGetValue          0000000180003a80     import64:KERNEL32.dll
 0002:00000a88       __imp_VirtualProtect       0000000180003a88     import64:KERNEL32.dll
 0002:00000a90       __imp_VirtualQuery         0000000180003a90     import64:KERNEL32.dll
 0002:00000aa0       __imp___acrt_iob_func      0000000180003aa0     libucrt:api-ms-win-crt-stdio-l1-1-0.dll
 0002:00000aa8       __imp___stdio_common_vfprintf 0000000180003aa8     libucrt:api-ms-win-crt-stdio-l1-1-0.dll
 0002:00000ab8       __imp_memcpy               0000000180003ab8     libucrt:api-ms-win-crt-private-l1-1-0.dll
 0002:00000ac8       __imp_strlen               0000000180003ac8     libucrt:api-ms-win-crt-string-l1-1-0.dll
 0002:00000ad0       __imp_strncmp              0000000180003ad0     libucrt:api-ms-win-crt-string-l1-1-0.dll
 0002:00000ae0       __imp__calloc              0000000180003ae0     libucrt:api-ms-win-crt-heap-l1-1-0.dll
 0002:00000ae8       __imp__free                0000000180003ae8     libucrt:api-ms-win-crt-heap-l1-1-0.dll
 0004:00000000       __isDLL                    0000000180005000     dllcrt2.o
 0004:00000001       __mingw_module_is_dll      0000000180005001     dllcrt2.o
 0004:00000008       __imp__amsg_exit           0000000180005008     libucrt:lib64_libucrt_extra_a-ucrt_amsg_exit.o
 0004:00000018       __native_dllmain_reason    0000000180005018     libmingw32:lib64_libmingw32_a-natstart.o
 0004:0000001c       __native_vcclrit_reason    000000018000501c     libmingw32:lib64_libmingw32_a-natstart.o
 0004:00000020       _CRT_MT                    0000000180005020     libmingw32:lib64_libmingw32_a-tlsmcrt.o
 0004:00000030       __imp_calloc               0000000180005030     libmingw32:lib64_libmingw32_a-calloc.o
 0004:00000038       __imp_free                 0000000180005038     libmingw32:lib64_libmingw32_a-free.o
 0004:00000040       __isGUI                    0000000180005040     dllcrt2.o
 0004:00000041       __isVCLPackage             0000000180005041     dllcrt2.o
 0004:00000060       _tls_index                 0000000180005060     libmingw32:lib64_libmingw32_a-tlssup.o
 0004:00000064       __mingw_initltsdrot_force  0000000180005064     libmingw32:lib64_libmingw32_a-tlssup.o
 0004:00000068       __mingw_initltsdyn_force   0000000180005068     libmingw32:lib64_libmingw32_a-tlssup.o
 0004:0000006c       __mingw_initltssuo_force   000000018000506c     libmingw32:lib64_libmingw32_a-tlssup.o
 0004:00000074       __mingw_app_type           0000000180005074     libmingw32:lib64_libmingw32_a-mingw_helpers.o
 0004:00000078       __native_startup_state     0000000180005078     libmingw32:lib64_libmingw32_a-natstart.o
 0004:00000080       __native_startup_lock      0000000180005080     libmingw32:lib64_libmingw32_a-natstart.o
 0004:00000088       _hInstance                 0000000180005088     libmingw32:lib64_libmingw32_a-hinstance.o
 0004:000000e8       _mngr_set                  00000001800050e8     libmingw32:lib64_libmingw32_a-crtmm_init.o
 0004:000000f0       _mngr                      00000001800050f0     libmingw32:lib64_libmingw32_a-crtmm_init.o
 0006:00000000       _tls_start                 0000000180007000     libmingw32:lib64_libmingw32_a-tlssup.o
 0006:00000008       _tls_end                   0000000180007008     libmingw32:lib64_libmingw32_a-tlssup.o

 entry point at         0001:00000280

 Static symbols

 0001:00000900       do_pseudo_reloc            0000000180001900     libmingw32:lib64_libmingw32_a-pseudo-reloc.o
 0001:00000d00       restore_modified_sections  0000000180001d00     libmingw32:lib64_libmingw32_a-pseudo-reloc.o
 0001:00000da0       __write_memory             0000000180001da0     libmingw32:lib64_libmingw32_a-pseudo-reloc.o
 0001:00000df0       __report_error             0000000180001df0     libmingw32:lib64_libmingw32_a-pseudo-reloc.o
 0001:00000e50       mark_section_writable      0000000180001e50     libmingw32:lib64_libmingw32_a-pseudo-reloc.o
 0001:000010d0       __guard_check_icall_dummy  00000001800020d0     libmingwex:lib64_libmingwex_a-mingw_cfguard_support.o
 0001:000013a0       __mingwthr_run_key_dtors   00000001800023a0     libmingw32:lib64_libmingw32_a-tlsthrd.o
 0002:00000720       _load_config_used__end     0000000180003720     libmingwex:lib64_libmingwex_a-loadcfg.o
 0002:00000740       __xd_a                     0000000180003740     libmingw32:lib64_libmingw32_a-tlssup.o
 0002:00000748       __xd_z                     0000000180003748     libmingw32:lib64_libmingw32_a-tlssup.o
 0004:00000010       __do_global_dtors.p        0000000180005010     libmingw32:lib64_libmingw32_a-gccmain.o
 0004:00000028       options                    0000000180005028     libucrt:lib64_libucrt_extra_a-ucrt___local_stdio_printf_options.o
 0004:00000044       __proc_attached            0000000180005044     dllcrt2.o
 0004:00000048       atexit_table               0000000180005048     dllcrt2.o
 0004:00000070       initialized                0000000180005070     libmingw32:lib64_libmingw32_a-gccmain.o
 0004:00000090       _pei386_runtime_relocator.was_init 0000000180005090     libmingw32:lib64_libmingw32_a-pseudo-reloc.o
 0004:00000098       the_secs                   0000000180005098     libmingw32:lib64_libmingw32_a-pseudo-reloc.o
 0004:000000a0       maxSections                00000001800050a0     libmingw32:lib64_libmingw32_a-pseudo-reloc.o
 0004:000000a8       __mingwthr_cs_init         00000001800050a8     libmingw32:lib64_libmingw32_a-tlsthrd.o
 0004:000000b0       __mingwthr_cs              00000001800050b0     libmingw32:lib64_libmingw32_a-tlsthrd.o
 0004:000000d8       key_dtor_list              00000001800050d8     libmingw32:lib64_libmingw32_a-tlsthrd.o
 0007:000000c0       $R000000                   00000001800080c0     internal .obj file created from .res files
 0007:000002f0       $R000001                   00000001800082f0     internal .obj file created from .res files
